
fibo:     file format elf32-littlearm


Disassembly of section .text:

0c000000 <_start>:
 c000000:	e59fd008 	ldr	sp, [pc, #8]	; c000010 <exit+0x8>
 c000004:	eb00006a 	bl	c0001b4 <main>

0c000008 <exit>:
 c000008:	e59f0004 	ldr	r0, [pc, #4]	; c000014 <exit+0xc>
 c00000c:	eafffffd 	b	c000008 <exit>
 c000010:	0c7ffffc 	.word	0x0c7ffffc
 c000014:	deeedeee 	.word	0xdeeedeee

0c000018 <nibbleToAscii>:
 c000018:	e2800030 	add	r0, r0, #48	; 0x30
 c00001c:	e20000ff 	and	r0, r0, #255	; 0xff
 c000020:	e3500039 	cmp	r0, #57	; 0x39
 c000024:	82800007 	addhi	r0, r0, #7
 c000028:	820000ff 	andhi	r0, r0, #255	; 0xff
 c00002c:	e12fff1e 	bx	lr

0c000030 <intToDeci>:
 c000030:	e92d47f0 	push	{r4, r5, r6, r7, r8, r9, sl, lr}
 c000034:	e24dd010 	sub	sp, sp, #16
 c000038:	e28dc004 	add	ip, sp, #4
 c00003c:	e3a03000 	mov	r3, #0
 c000040:	e59f20b8 	ldr	r2, [pc, #184]	; c000100 <intToDeci+0xd0>
 c000044:	e1a0500c 	mov	r5, ip
 c000048:	e3a04009 	mov	r4, #9
 c00004c:	e1a09003 	mov	r9, r3
 c000050:	e3a0e809 	mov	lr, #589824	; 0x90000
 c000054:	e0816092 	umull	r6, r1, r2, r0
 c000058:	e1a011a1 	lsr	r1, r1, #3
 c00005c:	e0816101 	add	r6, r1, r1, lsl #2
 c000060:	e0400086 	sub	r0, r0, r6, lsl #1
 c000064:	e21060ff 	ands	r6, r0, #255	; 0xff
 c000068:	13a07000 	movne	r7, #0
 c00006c:	03a07001 	moveq	r7, #1
 c000070:	e1a0a849 	asr	sl, r9, #16
 c000074:	e1a0884e 	asr	r8, lr, #16
 c000078:	e15a0008 	cmp	sl, r8
 c00007c:	a3a07000 	movge	r7, #0
 c000080:	b2077001 	andlt	r7, r7, #1
 c000084:	e3570000 	cmp	r7, #0
 c000088:	11a0382e 	lsrne	r3, lr, #16
 c00008c:	e1a00001 	mov	r0, r1
 c000090:	11a09803 	lslne	r9, r3, #16
 c000094:	1a000003 	bne	c0000a8 <intToDeci+0x78>
 c000098:	e3560000 	cmp	r6, #0
 c00009c:	115a0008 	cmpne	sl, r8
 c0000a0:	c1a03007 	movgt	r3, r7
 c0000a4:	c1a09003 	movgt	r9, r3
 c0000a8:	e2444001 	sub	r4, r4, #1
 c0000ac:	e1a04804 	lsl	r4, r4, #16
 c0000b0:	e1a04824 	lsr	r4, r4, #16
 c0000b4:	e1a0e804 	lsl	lr, r4, #16
 c0000b8:	e2866030 	add	r6, r6, #48	; 0x30
 c0000bc:	e37e0801 	cmn	lr, #65536	; 0x10000
 c0000c0:	e5c56009 	strb	r6, [r5, #9]
 c0000c4:	e2455001 	sub	r5, r5, #1
 c0000c8:	1affffe1 	bne	c000054 <intToDeci+0x24>
 c0000cc:	e1a09849 	asr	r9, r9, #16
 c0000d0:	e3590009 	cmp	r9, #9
 c0000d4:	12833001 	addne	r3, r3, #1
 c0000d8:	e1a00803 	lsl	r0, r3, #16
 c0000dc:	e1a01820 	lsr	r1, r0, #16
 c0000e0:	e261100a 	rsb	r1, r1, #10
 c0000e4:	e1a01801 	lsl	r1, r1, #16
 c0000e8:	e08c0840 	add	r0, ip, r0, asr #16
 c0000ec:	e1a01841 	asr	r1, r1, #16
 c0000f0:	eb00004d 	bl	c00022c <serial_puts>
 c0000f4:	e28dd010 	add	sp, sp, #16
 c0000f8:	e8bd47f0 	pop	{r4, r5, r6, r7, r8, r9, sl, lr}
 c0000fc:	e12fff1e 	bx	lr
 c000100:	cccccccd 	.word	0xcccccccd

0c000104 <fibo>:
 c000104:	e92d41f0 	push	{r4, r5, r6, r7, r8, lr}
 c000108:	e2507000 	subs	r7, r0, #0
 c00010c:	da000010 	ble	c000154 <fibo+0x50>
 c000110:	e3a04000 	mov	r4, #0
 c000114:	e3a05001 	mov	r5, #1
 c000118:	e1a06004 	mov	r6, r4
 c00011c:	ea000000 	b	c000124 <fibo+0x20>
 c000120:	e1a05003 	mov	r5, r3
 c000124:	e1a00004 	mov	r0, r4
 c000128:	e2866001 	add	r6, r6, #1
 c00012c:	ebffffbf 	bl	c000030 <intToDeci>
 c000130:	e1a06806 	lsl	r6, r6, #16
 c000134:	e59f0020 	ldr	r0, [pc, #32]	; c00015c <fibo+0x58>
 c000138:	e3a01002 	mov	r1, #2
 c00013c:	eb00003a 	bl	c00022c <serial_puts>
 c000140:	e1570846 	cmp	r7, r6, asr #16
 c000144:	e0853004 	add	r3, r5, r4
 c000148:	e1a06826 	lsr	r6, r6, #16
 c00014c:	e1a04005 	mov	r4, r5
 c000150:	cafffff2 	bgt	c000120 <fibo+0x1c>
 c000154:	e8bd41f0 	pop	{r4, r5, r6, r7, r8, lr}
 c000158:	e12fff1e 	bx	lr
 c00015c:	0c00027c 	.word	0x0c00027c

0c000160 <intToHexa>:
 c000160:	e92d4070 	push	{r4, r5, r6, lr}
 c000164:	e1a06000 	mov	r6, r0
 c000168:	e3a04018 	mov	r4, #24
 c00016c:	e1a05436 	lsr	r5, r6, r4
 c000170:	e20550ff 	and	r5, r5, #255	; 0xff
 c000174:	e1a00225 	lsr	r0, r5, #4
 c000178:	e2800030 	add	r0, r0, #48	; 0x30
 c00017c:	e3500039 	cmp	r0, #57	; 0x39
 c000180:	82800007 	addhi	r0, r0, #7
 c000184:	e0466415 	sub	r6, r6, r5, lsl r4
 c000188:	e205500f 	and	r5, r5, #15
 c00018c:	eb000017 	bl	c0001f0 <serial_putc>
 c000190:	e2850030 	add	r0, r5, #48	; 0x30
 c000194:	e3500039 	cmp	r0, #57	; 0x39
 c000198:	82800007 	addhi	r0, r0, #7
 c00019c:	e2444008 	sub	r4, r4, #8
 c0001a0:	eb000012 	bl	c0001f0 <serial_putc>
 c0001a4:	e3740008 	cmn	r4, #8
 c0001a8:	1affffef 	bne	c00016c <intToHexa+0xc>
 c0001ac:	e8bd4070 	pop	{r4, r5, r6, lr}
 c0001b0:	e12fff1e 	bx	lr

0c0001b4 <main>:
 c0001b4:	e92d4010 	push	{r4, lr}
 c0001b8:	eb000004 	bl	c0001d0 <serial_init>
 c0001bc:	e3a0000a 	mov	r0, #10
 c0001c0:	ebffffcf 	bl	c000104 <fibo>
 c0001c4:	e3a00000 	mov	r0, #0
 c0001c8:	e8bd4010 	pop	{r4, lr}
 c0001cc:	e12fff1e 	bx	lr

0c0001d0 <serial_init>:
 c0001d0:	e3a0361d 	mov	r3, #30408704	; 0x1d00000
 c0001d4:	e3a02003 	mov	r2, #3
 c0001d8:	e5832000 	str	r2, [r3]
 c0001dc:	e3a02005 	mov	r2, #5
 c0001e0:	e5832004 	str	r2, [r3, #4]
 c0001e4:	e3a02022 	mov	r2, #34	; 0x22
 c0001e8:	e5832028 	str	r2, [r3, #40]	; 0x28
 c0001ec:	e12fff1e 	bx	lr

0c0001f0 <serial_putc>:
 c0001f0:	e3a0261d 	mov	r2, #30408704	; 0x1d00000
 c0001f4:	e5923010 	ldr	r3, [r2, #16]
 c0001f8:	e3130002 	tst	r3, #2
 c0001fc:	0afffffc 	beq	c0001f4 <serial_putc+0x4>
 c000200:	e3a0361d 	mov	r3, #30408704	; 0x1d00000
 c000204:	e5830020 	str	r0, [r3, #32]
 c000208:	e12fff1e 	bx	lr

0c00020c <serial_getc>:
 c00020c:	e3a0261d 	mov	r2, #30408704	; 0x1d00000
 c000210:	e5923010 	ldr	r3, [r2, #16]
 c000214:	e3130001 	tst	r3, #1
 c000218:	0afffffc 	beq	c000210 <serial_getc+0x4>
 c00021c:	e3a0361d 	mov	r3, #30408704	; 0x1d00000
 c000220:	e5930024 	ldr	r0, [r3, #36]	; 0x24
 c000224:	e20000ff 	and	r0, r0, #255	; 0xff
 c000228:	e12fff1e 	bx	lr

0c00022c <serial_puts>:
 c00022c:	e3510000 	cmp	r1, #0
 c000230:	e92d0030 	push	{r4, r5}
 c000234:	da00000e 	ble	c000274 <serial_puts+0x48>
 c000238:	e2411001 	sub	r1, r1, #1
 c00023c:	e1a05801 	lsl	r5, r1, #16
 c000240:	e1a05825 	lsr	r5, r5, #16
 c000244:	e3a0261d 	mov	r2, #30408704	; 0x1d00000
 c000248:	e2855001 	add	r5, r5, #1
 c00024c:	e3a01000 	mov	r1, #0
 c000250:	e1a04002 	mov	r4, r2
 c000254:	e7d0c001 	ldrb	ip, [r0, r1]
 c000258:	e5923010 	ldr	r3, [r2, #16]
 c00025c:	e3130002 	tst	r3, #2
 c000260:	0afffffc 	beq	c000258 <serial_puts+0x2c>
 c000264:	e2811001 	add	r1, r1, #1
 c000268:	e1510005 	cmp	r1, r5
 c00026c:	e584c020 	str	ip, [r4, #32]
 c000270:	1afffff7 	bne	c000254 <serial_puts+0x28>
 c000274:	e8bd0030 	pop	{r4, r5}
 c000278:	e12fff1e 	bx	lr
